target datalayout = "e-m:e-p270:32:32-p271:32:32-p272:64:64-i64:64-i128:128-f80:128-n8:16:32:64-S128"
target triple = "x86_64-pc-linux-gnu"

%struct.ParsedWord = type { i16, i16, i16, i16, %union.anon, ptr }
%union.anon = type { ptr }

; Function Attrs: nounwind uwtable
define internal i32 @compareWORD(ptr noundef %0, ptr noundef %1) #0 {
  %3 = alloca i32, align 4
  %4 = alloca ptr, align 8
  %5 = alloca ptr, align 8
  %6 = alloca i32, align 4
  %7 = alloca i32, align 4
  store ptr %0, ptr %4, align 8
  store ptr %1, ptr %5, align 8
  call void @llvm.lifetime.start.p0(i64 4, ptr %6) #7
  %8 = load ptr, ptr %4, align 8
  %9 = getelementptr inbounds nuw %struct.ParsedWord, ptr %8, i32 0, i32 5
  %10 = load ptr, ptr %9, align 8
  %11 = load ptr, ptr %4, align 8
  %12 = getelementptr inbounds nuw %struct.ParsedWord, ptr %11, i32 0, i32 1
  %13 = load i16, ptr %12, align 2
  %14 = zext i16 %13 to i32
  %15 = load ptr, ptr %5, align 8
  %16 = getelementptr inbounds nuw %struct.ParsedWord, ptr %15, i32 0, i32 5
  %17 = load ptr, ptr %16, align 8
  %18 = load ptr, ptr %5, align 8
  %19 = getelementptr inbounds nuw %struct.ParsedWord, ptr %18, i32 0, i32 1
  %20 = load i16, ptr %19, align 2
  %21 = zext i16 %20 to i32
  %22 = call i32 @tsCompareString(ptr noundef %10, i32 noundef %14, ptr noundef %17, i32 noundef %21, i1 noundef zeroext false)
  store i32 %22, ptr %6, align 4
  %23 = load i32, ptr %6, align 4
  %24 = icmp eq i32 %23, 0
  br i1 %24, label %25, label %47

25:                                               ; preds = %2
  %26 = load ptr, ptr %4, align 8
  %27 = getelementptr inbounds nuw %struct.ParsedWord, ptr %26, i32 0, i32 4
  %28 = load i16, ptr %27, align 8
  %29 = zext i16 %28 to i32
  %30 = load ptr, ptr %5, align 8
  %31 = getelementptr inbounds nuw %struct.ParsedWord, ptr %30, i32 0, i32 4
  %32 = load i16, ptr %31, align 8
  %33 = zext i16 %32 to i32
  %34 = icmp eq i32 %29, %33
  br i1 %34, label %35, label %36

35:                                               ; preds = %25
  store i32 0, ptr %3, align 4
  store i32 1, ptr %7, align 4
  br label %49

36:                                               ; preds = %25
  %37 = load ptr, ptr %4, align 8
  %38 = getelementptr inbounds nuw %struct.ParsedWord, ptr %37, i32 0, i32 4
  %39 = load i16, ptr %38, align 8
  %40 = zext i16 %39 to i32
  %41 = load ptr, ptr %5, align 8
  %42 = getelementptr inbounds nuw %struct.ParsedWord, ptr %41, i32 0, i32 4
  %43 = load i16, ptr %42, align 8
  %44 = zext i16 %43 to i32
  %45 = icmp sgt i32 %40, %44
  %46 = select i1 %45, i32 1, i32 -1
  store i32 %46, ptr %6, align 4
  br label %47

47:                                               ; preds = %36, %2
  %48 = load i32, ptr %6, align 4
  store i32 %48, ptr %3, align 4
  store i32 1, ptr %7, align 4
  br label %49

49:                                               ; preds = %47, %35
  call void @llvm.lifetime.end.p0(i64 4, ptr %6) #7
  %50 = load i32, ptr %3, align 4
  ret i32 %50
}