; Function Attrs: nounwind uwtable
define internal i32 @compareWORD(ptr noundef readonly captures(none) %0, ptr noundef readonly captures(none) %1) #0 {
  %3 = getelementptr inbounds nuw i8, ptr %0, i64 16
  %4 = load ptr, ptr %3, align 8
  %5 = getelementptr inbounds nuw i8, ptr %0, i64 2
  %6 = load i16, ptr %5, align 2
  %7 = zext i16 %6 to i32
  %8 = getelementptr inbounds nuw i8, ptr %1, i64 16
  %9 = load ptr, ptr %8, align 8
  %10 = getelementptr inbounds nuw i8, ptr %1, i64 2
  %11 = load i16, ptr %10, align 2
  %12 = zext i16 %11 to i32
  %13 = tail call i32 @tsCompareString(ptr noundef %4, i32 noundef %7, ptr noundef %9, i32 noundef %12, i1 noundef zeroext false) #8
  %14 = icmp eq i32 %13, 0
  br i1 %14, label %15, label %24

15:                                               ; preds = %2
  %16 = getelementptr inbounds nuw i8, ptr %0, i64 8
  %17 = load i16, ptr %16, align 8
  %18 = getelementptr inbounds nuw i8, ptr %1, i64 8
  %19 = load i16, ptr %18, align 8
  %20 = icmp eq i16 %17, %19
  br i1 %20, label %24, label %21

21:                                               ; preds = %15
  %22 = icmp ugt i16 %17, %19
  %23 = select i1 %22, i32 1, i32 -1
  br label %24

24:                                               ; preds = %2, %21, %15
  %.010 = phi i32 [ 0, %15 ], [ %23, %21 ], [ %13, %2 ]
  ret i32 %.010
}